target datalayout = "e-m:e-p270:32:32-p271:32:32-p272:64:64-i64:64-i128:128-f80:128-n8:16:32:64-S128"
target triple = "x86_64-pc-linux-gnu"

%struct.pm_static_literals_metadata_t = type { ptr, i32, ptr }

; Function Attrs: nounwind sspstrong uwtable
define hidden void @pm_static_literal_inspect(ptr noundef %0, ptr noundef %1, i32 noundef %2, ptr noundef %3, ptr noundef %4) #0 {
  %6 = alloca ptr, align 8
  %7 = alloca ptr, align 8
  %8 = alloca i32, align 4
  %9 = alloca ptr, align 8
  %10 = alloca ptr, align 8
  %11 = alloca %struct.pm_static_literals_metadata_t, align 8
  store ptr %0, ptr %6, align 8, !tbaa !7
  store ptr %1, ptr %7, align 8, !tbaa !7
  store i32 %2, ptr %8, align 4, !tbaa !11
  store ptr %3, ptr %9, align 8, !tbaa !57
  store ptr %4, ptr %10, align 8, !tbaa !13
  %12 = load ptr, ptr %6, align 8, !tbaa !7
  %13 = getelementptr inbounds nuw %struct.pm_static_literals_metadata_t, ptr %11, i32 0, i32 0
  %14 = load ptr, ptr %7, align 8, !tbaa !7
  store ptr %14, ptr %13, align 8, !tbaa !22
  %15 = getelementptr inbounds nuw %struct.pm_static_literals_metadata_t, ptr %11, i32 0, i32 1
  %16 = load i32, ptr %8, align 4, !tbaa !11
  store i32 %16, ptr %15, align 8, !tbaa !24
  %17 = getelementptr i8, ptr %11, i64 12
  call void @llvm.memset.p0.i64(ptr align 4 %17, i8 0, i64 4, i1 false)
  %18 = getelementptr inbounds nuw %struct.pm_static_literals_metadata_t, ptr %11, i32 0, i32 2
  %19 = load ptr, ptr %9, align 8, !tbaa !57
  store ptr %19, ptr %18, align 8, !tbaa !25
  %20 = load ptr, ptr %10, align 8, !tbaa !13
  call void @pm_static_literal_inspect_node(ptr noundef %12, ptr noundef %11, ptr noundef %20)
  ret void
}