; Function Attrs: nounwind sspstrong uwtable
define hidden void @pm_static_literal_inspect(ptr noundef %0, ptr noundef %1, i32 noundef %2, ptr noundef %3, ptr noundef %4) local_unnamed_addr #0 {
  %6 = alloca %struct.pm_static_literals_metadata_t, align 8
  store ptr %1, ptr %6, align 8, !tbaa !16
  %7 = getelementptr inbounds nuw i8, ptr %6, i64 8
  store i32 %2, ptr %7, align 8, !tbaa !18
  %8 = getelementptr inbounds nuw i8, ptr %6, i64 12
  store i32 0, ptr %8, align 4
  %9 = getelementptr inbounds nuw i8, ptr %6, i64 16
  store ptr %3, ptr %9, align 8, !tbaa !19
  call fastcc void @pm_static_literal_inspect_node(ptr noundef %0, ptr noundef %6, ptr noundef %4)
  ret void
}